target datalayout = "e-m:e-p270:32:32-p271:32:32-p272:64:64-i64:64-i128:128-f80:128-n8:16:32:64-S128"
target triple = "x86_64-pc-linux-gnu"

%struct.PROXY_CERT_INFO_EXTENSION_st = type { ptr, ptr }
%struct.PROXY_POLICY_st = type { ptr, ptr }
%struct.asn1_string_st = type { i32, i32, ptr, i64 }

@.str = private unnamed_addr constant [28 x i8] c"%*sPath Length Constraint: \00", align 1
@.str.1 = private unnamed_addr constant [1 x i8] zeroinitializer, align 1
@.str.2 = private unnamed_addr constant [9 x i8] c"infinite\00", align 1
@.str.3 = private unnamed_addr constant [2 x i8] c"\0A\00", align 1
@.str.4 = private unnamed_addr constant [21 x i8] c"%*sPolicy Language: \00", align 1
@.str.5 = private unnamed_addr constant [22 x i8] c"\0A%*sPolicy Text: %.*s\00", align 1

; Function Attrs: nounwind uwtable
define internal i32 @i2r_pci(ptr noundef %0, ptr noundef %1, ptr noundef %2, i32 noundef %3) #1 {
  %5 = alloca ptr, align 8
  %6 = alloca ptr, align 8
  %7 = alloca ptr, align 8
  %8 = alloca i32, align 4
  store ptr %0, ptr %5, align 8, !tbaa !3
  store ptr %1, ptr %6, align 8, !tbaa !8
  store ptr %2, ptr %7, align 8, !tbaa !10
  store i32 %3, ptr %8, align 4, !tbaa !12
  %9 = load ptr, ptr %7, align 8, !tbaa !10
  %10 = load i32, ptr %8, align 4, !tbaa !12
  %11 = call i32 (ptr, ptr, ...) @BIO_printf(ptr noundef %9, ptr noundef @.str, i32 noundef %10, ptr noundef @.str.1)
  %12 = load ptr, ptr %6, align 8, !tbaa !8
  %13 = getelementptr inbounds nuw %struct.PROXY_CERT_INFO_EXTENSION_st, ptr %12, i32 0, i32 0
  %14 = load ptr, ptr %13, align 8, !tbaa !14
  %15 = icmp ne ptr %14, null
  br i1 %15, label %16, label %22

16:                                               ; preds = %4
  %17 = load ptr, ptr %7, align 8, !tbaa !10
  %18 = load ptr, ptr %6, align 8, !tbaa !8
  %19 = getelementptr inbounds nuw %struct.PROXY_CERT_INFO_EXTENSION_st, ptr %18, i32 0, i32 0
  %20 = load ptr, ptr %19, align 8, !tbaa !14
  %21 = call i32 @i2a_ASN1_INTEGER(ptr noundef %17, ptr noundef %20)
  br label %25

22:                                               ; preds = %4
  %23 = load ptr, ptr %7, align 8, !tbaa !10
  %24 = call i32 (ptr, ptr, ...) @BIO_printf(ptr noundef %23, ptr noundef @.str.2)
  br label %25

25:                                               ; preds = %22, %16
  %26 = load ptr, ptr %7, align 8, !tbaa !10
  %27 = call i32 @BIO_puts(ptr noundef %26, ptr noundef @.str.3)
  %28 = load ptr, ptr %7, align 8, !tbaa !10
  %29 = load i32, ptr %8, align 4, !tbaa !12
  %30 = call i32 (ptr, ptr, ...) @BIO_printf(ptr noundef %28, ptr noundef @.str.4, i32 noundef %29, ptr noundef @.str.1)
  %31 = load ptr, ptr %7, align 8, !tbaa !10
  %32 = load ptr, ptr %6, align 8, !tbaa !8
  %33 = getelementptr inbounds nuw %struct.PROXY_CERT_INFO_EXTENSION_st, ptr %32, i32 0, i32 1
  %34 = load ptr, ptr %33, align 8, !tbaa !18
  %35 = getelementptr inbounds nuw %struct.PROXY_POLICY_st, ptr %34, i32 0, i32 0
  %36 = load ptr, ptr %35, align 8, !tbaa !19
  %37 = call i32 @i2a_ASN1_OBJECT(ptr noundef %31, ptr noundef %36)
  %38 = load ptr, ptr %6, align 8, !tbaa !8
  %39 = getelementptr inbounds nuw %struct.PROXY_CERT_INFO_EXTENSION_st, ptr %38, i32 0, i32 1
  %40 = load ptr, ptr %39, align 8, !tbaa !18
  %41 = getelementptr inbounds nuw %struct.PROXY_POLICY_st, ptr %40, i32 0, i32 1
  %42 = load ptr, ptr %41, align 8, !tbaa !22
  %43 = icmp ne ptr %42, null
  br i1 %43, label %44, label %71

44:                                               ; preds = %25
  %45 = load ptr, ptr %6, align 8, !tbaa !8
  %46 = getelementptr inbounds nuw %struct.PROXY_CERT_INFO_EXTENSION_st, ptr %45, i32 0, i32 1
  %47 = load ptr, ptr %46, align 8, !tbaa !18
  %48 = getelementptr inbounds nuw %struct.PROXY_POLICY_st, ptr %47, i32 0, i32 1
  %49 = load ptr, ptr %48, align 8, !tbaa !22
  %50 = getelementptr inbounds nuw %struct.asn1_string_st, ptr %49, i32 0, i32 2
  %51 = load ptr, ptr %50, align 8, !tbaa !23
  %52 = icmp ne ptr %51, null
  br i1 %52, label %53, label %71

53:                                               ; preds = %44
  %54 = load ptr, ptr %7, align 8, !tbaa !10
  %55 = load i32, ptr %8, align 4, !tbaa !12
  %56 = load ptr, ptr %6, align 8, !tbaa !8
  %57 = getelementptr inbounds nuw %struct.PROXY_CERT_INFO_EXTENSION_st, ptr %56, i32 0, i32 1
  %58 = load ptr, ptr %57, align 8, !tbaa !18
  %59 = getelementptr inbounds nuw %struct.PROXY_POLICY_st, ptr %58, i32 0, i32 1
  %60 = load ptr, ptr %59, align 8, !tbaa !22
  %61 = getelementptr inbounds nuw %struct.asn1_string_st, ptr %60, i32 0, i32 0
  %62 = load i32, ptr %61, align 8, !tbaa !27
  %63 = load ptr, ptr %6, align 8, !tbaa !8
  %64 = getelementptr inbounds nuw %struct.PROXY_CERT_INFO_EXTENSION_st, ptr %63, i32 0, i32 1
  %65 = load ptr, ptr %64, align 8, !tbaa !18
  %66 = getelementptr inbounds nuw %struct.PROXY_POLICY_st, ptr %65, i32 0, i32 1
  %67 = load ptr, ptr %66, align 8, !tbaa !22
  %68 = getelementptr inbounds nuw %struct.asn1_string_st, ptr %67, i32 0, i32 2
  %69 = load ptr, ptr %68, align 8, !tbaa !23
  %70 = call i32 (ptr, ptr, ...) @BIO_printf(ptr noundef %54, ptr noundef @.str.5, i32 noundef %55, ptr noundef @.str.1, i32 noundef %62, ptr noundef %69)
  br label %71

71:                                               ; preds = %53, %44, %25
  ret i32 1
}