; Function Attrs: nounwind uwtable
define internal noundef i32 @i2r_pci(ptr readnone captures(none) %0, ptr noundef readonly captures(none) %1, ptr noundef %2, i32 noundef %3) #1 {
  %5 = tail call i32 (ptr, ptr, ...) @BIO_printf(ptr noundef %2, ptr noundef nonnull @.str, i32 noundef %3, ptr noundef nonnull @.str.1) #5
  %6 = load ptr, ptr %1, align 8, !tbaa !3
  %.not = icmp eq ptr %6, null
  br i1 %.not, label %9, label %7

7:                                                ; preds = %4
  %8 = tail call i32 @i2a_ASN1_INTEGER(ptr noundef %2, ptr noundef nonnull %6) #5
  br label %11

9:                                                ; preds = %4
  %10 = tail call i32 (ptr, ptr, ...) @BIO_printf(ptr noundef %2, ptr noundef nonnull @.str.2) #5
  br label %11

11:                                               ; preds = %9, %7
  %12 = tail call i32 @BIO_puts(ptr noundef %2, ptr noundef nonnull @.str.3) #5
  %13 = tail call i32 (ptr, ptr, ...) @BIO_printf(ptr noundef %2, ptr noundef nonnull @.str.4, i32 noundef %3, ptr noundef nonnull @.str.1) #5
  %14 = getelementptr inbounds nuw i8, ptr %1, i64 8
  %15 = load ptr, ptr %14, align 8, !tbaa !10
  %16 = load ptr, ptr %15, align 8, !tbaa !11
  %17 = tail call i32 @i2a_ASN1_OBJECT(ptr noundef %2, ptr noundef %16) #5
  %18 = load ptr, ptr %14, align 8, !tbaa !10
  %19 = getelementptr inbounds nuw i8, ptr %18, i64 8
  %20 = load ptr, ptr %19, align 8, !tbaa !14
  %.not18 = icmp eq ptr %20, null
  br i1 %.not18, label %27, label %21

21:                                               ; preds = %11
  %22 = getelementptr inbounds nuw i8, ptr %20, i64 8
  %23 = load ptr, ptr %22, align 8, !tbaa !15
  %.not19 = icmp eq ptr %23, null
  br i1 %.not19, label %27, label %24

24:                                               ; preds = %21
  %25 = load i32, ptr %20, align 8, !tbaa !20
  %26 = tail call i32 (ptr, ptr, ...) @BIO_printf(ptr noundef %2, ptr noundef nonnull @.str.5, i32 noundef %3, ptr noundef nonnull @.str.1, i32 noundef %25, ptr noundef nonnull %23) #5
  br label %27

27:                                               ; preds = %24, %21, %11
  ret i32 1
}